target datalayout = "e-m:e-p270:32:32-p271:32:32-p272:64:64-i64:64-i128:128-f80:128-n8:16:32:64-S128"
target triple = "x86_64-pc-linux-gnu"

%struct._lv_font_t = type { ptr, ptr, ptr, i32, i32, i8, i8, i8, ptr, ptr, ptr }
%struct._lv_theme_t = type { ptr, ptr, ptr, ptr, %struct.lv_color_t, %struct.lv_color_t, ptr, ptr, ptr, i32 }
%struct.lv_color_t = type { i8, i8, i8 }

@lv_font_montserrat_14 = external constant %struct._lv_font_t, align 8

; Function Attrs: nounwind uwtable
define ptr @lv_theme_get_from_obj(ptr noundef %0) #0 {
  %2 = alloca ptr, align 8
  %3 = alloca ptr, align 8
  store ptr %0, ptr %2, align 8, !tbaa !3
  call void @llvm.lifetime.start.p0(i64 8, ptr %3) #4
  %4 = load ptr, ptr %2, align 8, !tbaa !3
  %5 = icmp ne ptr %4, null
  br i1 %5, label %6, label %9

6:                                                ; preds = %1
  %7 = load ptr, ptr %2, align 8, !tbaa !3
  %8 = call ptr @lv_obj_get_display(ptr noundef %7)
  br label %11

9:                                                ; preds = %1
  %10 = call ptr @lv_display_get_default()
  br label %11

11:                                               ; preds = %9, %6
  %12 = phi ptr [ %8, %6 ], [ %10, %9 ]
  store ptr %12, ptr %3, align 8, !tbaa !8
  %13 = load ptr, ptr %3, align 8, !tbaa !8
  %14 = call ptr @lv_display_get_theme(ptr noundef %13)
  call void @llvm.lifetime.end.p0(i64 8, ptr %3) #4
  ret ptr %14
}

; Function Attrs: nounwind uwtable
define ptr @lv_theme_get_font_small(ptr noundef %0) #0 {
  %2 = alloca ptr, align 8
  %3 = alloca ptr, align 8
  store ptr %0, ptr %2, align 8, !tbaa !3
  call void @llvm.lifetime.start.p0(i64 8, ptr %3) #4
  %4 = load ptr, ptr %2, align 8, !tbaa !3
  %5 = call ptr @lv_theme_get_from_obj(ptr noundef %4)
  store ptr %5, ptr %3, align 8, !tbaa !10
  %6 = load ptr, ptr %3, align 8, !tbaa !10
  %7 = icmp ne ptr %6, null
  br i1 %7, label %8, label %12

8:                                                ; preds = %1
  %9 = load ptr, ptr %3, align 8, !tbaa !10
  %10 = getelementptr inbounds nuw %struct._lv_theme_t, ptr %9, i32 0, i32 6
  %11 = load ptr, ptr %10, align 8, !tbaa !30
  br label %13

12:                                               ; preds = %1
  br label %13

13:                                               ; preds = %12, %8
  %14 = phi ptr [ %11, %8 ], [ @lv_font_montserrat_14, %12 ]
  call void @llvm.lifetime.end.p0(i64 8, ptr %3) #4
  ret ptr %14
}